; Function Attrs: mustprogress nounwind uwtable
define hidden noundef ptr @_ZN11VtableStubs15stub_containingEPh(ptr noundef readnone %0) local_unnamed_addr #0 align 2 {
  br label %2

2:                                                ; preds = %1, %._crit_edge
  %indvars.iv = phi i64 [ 0, %1 ], [ %indvars.iv.next, %._crit_edge ]
  %3 = getelementptr inbounds [256 x ptr], ptr @_ZN11VtableStubs6_tableE, i64 0, i64 %indvars.iv
  %4 = load volatile ptr, ptr %3, align 8
  tail call void asm sideeffect "", "~{memory},~{dirflag},~{fpsr},~{flags}"() #7, !srcloc !9
  %.not12 = icmp eq ptr %4, null
  br i1 %.not12, label %._crit_edge, label %.lr.ph

.lr.ph:                                           ; preds = %2
  %_ZN11VtableStubs15_vtab_stub_sizeE.val.i.i.i = load i32, ptr @_ZN11VtableStubs15_vtab_stub_sizeE, align 4
  %_ZN11VtableStubs15_itab_stub_sizeE.val.i.i.i = load i32, ptr @_ZN11VtableStubs15_itab_stub_sizeE, align 4
  br label %5

5:                                                ; preds = %.lr.ph, %_ZNK10VtableStub8containsEPh.exit.thread
  %.013 = phi ptr [ %4, %.lr.ph ], [ %16, %_ZNK10VtableStub8containsEPh.exit.thread ]
  %6 = getelementptr inbounds i8, ptr %.013, i64 16
  %.not.i = icmp ugt ptr %6, %0
  br i1 %.not.i, label %_ZNK10VtableStub8containsEPh.exit.thread, label %_ZNK10VtableStub8containsEPh.exit

_ZNK10VtableStub8containsEPh.exit:                ; preds = %5
  %7 = getelementptr inbounds i8, ptr %.013, i64 14
  %8 = load i8, ptr %7, align 2
  %9 = icmp eq i8 %8, 1
  %..i.i.i = select i1 %9, i32 64, i32 256
  %10 = select i1 %9, i32 %_ZN11VtableStubs15_vtab_stub_sizeE.val.i.i.i, i32 %_ZN11VtableStubs15_itab_stub_sizeE.val.i.i.i
  %11 = icmp sgt i32 %10, 0
  %12 = select i1 %11, i32 %10, i32 %..i.i.i
  %13 = sext i32 %12 to i64
  %14 = getelementptr inbounds i8, ptr %6, i64 %13
  %15 = icmp ugt ptr %14, %0
  br i1 %15, label %.loopexit, label %_ZNK10VtableStub8containsEPh.exit.thread

_ZNK10VtableStub8containsEPh.exit.thread:         ; preds = %5, %_ZNK10VtableStub8containsEPh.exit
  %16 = load ptr, ptr %.013, align 8
  %.not = icmp eq ptr %16, null
  br i1 %.not, label %._crit_edge, label %5, !llvm.loop !11

._crit_edge:                                      ; preds = %_ZNK10VtableStub8containsEPh.exit.thread, %2
  %indvars.iv.next = add nuw nsw i64 %indvars.iv, 1
  %exitcond.not = icmp eq i64 %indvars.iv.next, 256
  br i1 %exitcond.not, label %.loopexit, label %2, !llvm.loop !12

.loopexit:                                        ; preds = %._crit_edge, %_ZNK10VtableStub8containsEPh.exit
  %.09 = phi ptr [ %.013, %_ZNK10VtableStub8containsEPh.exit ], [ null, %._crit_edge ]
  ret ptr %.09
}